; Function Attrs: nounwind uwtable
define i32 @mriStep_WriteParameters(ptr noundef %0, ptr noundef captures(none) %1) local_unnamed_addr #0 {
  %3 = alloca ptr, align 8
  call void @llvm.lifetime.start.p0(i64 8, ptr nonnull %3) #5
  %4 = call i32 @mriStep_AccessStepMem(ptr noundef %0, ptr noundef nonnull @__func__.mriStep_WriteParameters, ptr noundef nonnull %3) #5
  %.not = icmp eq i32 %4, 0
  br i1 %.not, label %5, label %68

5:                                                ; preds = %2
  %6 = call i64 @fwrite(ptr nonnull @.str.50, i64 37, i64 1, ptr %1)
  %7 = load ptr, ptr %3, align 8, !tbaa !8
  %8 = getelementptr inbounds nuw i8, ptr %7, i64 80
  %9 = load i32, ptr %8, align 8, !tbaa !22
  %10 = call i32 (ptr, ptr, ...) @fprintf(ptr noundef %1, ptr noundef nonnull @.str.51, i32 noundef %9) #5
  %11 = load ptr, ptr %3, align 8, !tbaa !8
  %12 = getelementptr inbounds nuw i8, ptr %11, i64 16
  %13 = load i32, ptr %12, align 8, !tbaa !53
  %.not20 = icmp eq i32 %13, 0
  br i1 %.not20, label %23, label %14

14:                                               ; preds = %5
  %15 = call i64 @fwrite(ptr nonnull @.str.52, i64 25, i64 1, ptr %1)
  %16 = load ptr, ptr %3, align 8, !tbaa !8
  %17 = getelementptr inbounds nuw i8, ptr %16, i64 20
  %18 = load i32, ptr %17, align 4, !tbaa !54
  %.not21 = icmp eq i32 %18, 0
  br i1 %.not21, label %21, label %19

19:                                               ; preds = %14
  %20 = call i64 @fwrite(ptr nonnull @.str.53, i64 27, i64 1, ptr %1)
  br label %23

21:                                               ; preds = %14
  %22 = call i64 @fwrite(ptr nonnull @.str.54, i64 29, i64 1, ptr %1)
  br label %23

23:                                               ; preds = %19, %21, %5
  %24 = load ptr, ptr %3, align 8, !tbaa !8
  %25 = getelementptr inbounds nuw i8, ptr %24, i64 24
  %26 = load i32, ptr %25, align 8, !tbaa !95
  %.not22 = icmp eq i32 %26, 0
  %.phi.trans.insert = getelementptr inbounds nuw i8, ptr %24, i64 28
  %.pre = load i32, ptr %.phi.trans.insert, align 4, !tbaa !96
  %27 = icmp eq i32 %.pre, 0
  br i1 %.not22, label %31, label %28

28:                                               ; preds = %23
  br i1 %27, label %.thread, label %29

29:                                               ; preds = %28
  %30 = call i64 @fwrite(ptr nonnull @.str.55, i64 23, i64 1, ptr %1)
  br label %35

31:                                               ; preds = %23
  br i1 %27, label %.thread, label %32

32:                                               ; preds = %31
  %33 = call i64 @fwrite(ptr nonnull @.str.56, i64 27, i64 1, ptr %1)
  br label %35

.thread:                                          ; preds = %28, %31
  %34 = call i64 @fwrite(ptr nonnull @.str.57, i64 27, i64 1, ptr %1)
  br label %35

35:                                               ; preds = %32, %.thread, %29
  %36 = load ptr, ptr %3, align 8, !tbaa !8
  %37 = getelementptr inbounds nuw i8, ptr %36, i64 28
  %38 = load i32, ptr %37, align 4, !tbaa !96
  %.not25 = icmp eq i32 %38, 0
  br i1 %.not25, label %67, label %39

39:                                               ; preds = %35
  %40 = getelementptr inbounds nuw i8, ptr %36, i64 224
  %41 = load i32, ptr %40, align 8, !tbaa !52
  %42 = call i32 (ptr, ptr, ...) @fprintf(ptr noundef %1, ptr noundef nonnull @.str.58, i32 noundef %41) #5
  %43 = load ptr, ptr %3, align 8, !tbaa !8
  %44 = getelementptr inbounds nuw i8, ptr %43, i64 272
  %45 = load double, ptr %44, align 8, !tbaa !57
  %46 = call i32 (ptr, ptr, ...) @fprintf(ptr noundef %1, ptr noundef nonnull @.str.59, double noundef %45) #5
  %47 = load ptr, ptr %3, align 8, !tbaa !8
  %48 = getelementptr inbounds nuw i8, ptr %47, i64 296
  %49 = load i32, ptr %48, align 8, !tbaa !56
  %50 = call i32 (ptr, ptr, ...) @fprintf(ptr noundef %1, ptr noundef nonnull @.str.60, i32 noundef %49) #5
  %51 = load ptr, ptr %3, align 8, !tbaa !8
  %52 = getelementptr inbounds nuw i8, ptr %51, i64 232
  %53 = load double, ptr %52, align 8, !tbaa !58
  %54 = call i32 (ptr, ptr, ...) @fprintf(ptr noundef %1, ptr noundef nonnull @.str.61, double noundef %53) #5
  %55 = load ptr, ptr %3, align 8, !tbaa !8
  %56 = getelementptr inbounds nuw i8, ptr %55, i64 240
  %57 = load double, ptr %56, align 8, !tbaa !59
  %58 = call i32 (ptr, ptr, ...) @fprintf(ptr noundef %1, ptr noundef nonnull @.str.62, double noundef %57) #5
  %59 = load ptr, ptr %3, align 8, !tbaa !8
  %60 = getelementptr inbounds nuw i8, ptr %59, i64 216
  %61 = load double, ptr %60, align 8, !tbaa !60
  %62 = call i32 (ptr, ptr, ...) @fprintf(ptr noundef %1, ptr noundef nonnull @.str.63, double noundef %61) #5
  %63 = load ptr, ptr %3, align 8, !tbaa !8
  %64 = getelementptr inbounds nuw i8, ptr %63, i64 280
  %65 = load i32, ptr %64, align 8, !tbaa !61
  %66 = call i32 (ptr, ptr, ...) @fprintf(ptr noundef %1, ptr noundef nonnull @.str.64, i32 noundef %65) #5
  br label %67

67:                                               ; preds = %39, %35
  %fputc = call i32 @fputc(i32 10, ptr %1)
  br label %68

68:                                               ; preds = %2, %67
  call void @llvm.lifetime.end.p0(i64 8, ptr nonnull %3) #5
  ret i32 %4
}